#include <math.h>
#include <stdio.h>
#include <stdlib.h>
#include <string.h>

int main()
{
   int n,s[20],i,j,a,b,c;
   scanf("%d",&n);
   for(i=0;i<n;i++)
   {
	   scanf("%d",&(s[i]));
   }
   for(i=0;i<n;i++)
   {
	   if(s[i]<=2)
	       printf("1\n");
	   if(s[i]>2)
	   {
		       a=1;
			   b=1;
		       for(j=3;j<=s[i];j++)
			   {
		           c=a+b;
		           a=b;
		           b=c;
			   }
	          printf("%d\n",c);
	   }
   }
	return 0;

}
